; ModuleID = '24/1256.c'
source_filename = "24/1256.c"
target datalayout = "e-m:e-p270:32:32-p271:32:32-p272:64:64-i64:64-f80:128-n8:16:32:64-S128"
target triple = "x86_64-pc-linux-gnu"

@.str = private unnamed_addr constant [4 x i8] c"%s\0A\00", align 1

; Function Attrs: noinline nounwind uwtable
define dso_local i32 @main() #0 {
  %1 = alloca i32, align 4
  %2 = alloca [1000 x i8], align 16
  %3 = alloca [50 x [1000 x i8]], align 16
  %4 = alloca [50 x i32], align 16
  %5 = alloca i32, align 4
  %6 = alloca i32, align 4
  %7 = alloca i32, align 4
  %8 = alloca i32, align 4
  %9 = alloca i32, align 4
  %10 = alloca i32, align 4
  %11 = alloca i32, align 4
  %12 = alloca i32, align 4
  %13 = alloca i32, align 4
  %14 = alloca i32, align 4
  %15 = alloca i32, align 4
  %16 = alloca i32, align 4
  store i32 0, i32* %1, align 4
  store i32 0, i32* %7, align 4
  store i32 0, i32* %8, align 4
  store i32 0, i32* %10, align 4
  store i32 0, i32* %11, align 4
  store i32 0, i32* %12, align 4
  store i32 100, i32* %13, align 4
  %17 = getelementptr inbounds [1000 x i8], [1000 x i8]* %2, i64 0, i64 0
  %18 = call i32 (i8*, ...) bitcast (i32 (...)* @gets to i32 (i8*, ...)*)(i8* %17)
  %19 = getelementptr inbounds [1000 x i8], [1000 x i8]* %2, i64 0, i64 0
  %20 = call i64 @strlen(i8* %19) #3
  %21 = trunc i64 %20 to i32
  store i32 %21, i32* %16, align 4
  store i32 0, i32* %6, align 4
  br label %22

22:                                               ; preds = %81, %0
  %23 = load i32, i32* %6, align 4
  %24 = icmp slt i32 %23, 50
  br i1 %24, label %25, label %84

25:                                               ; preds = %22
  store i32 0, i32* %8, align 4
  %26 = load i32, i32* %7, align 4
  store i32 %26, i32* %5, align 4
  br label %27

27:                                               ; preds = %57, %25
  %28 = load i32, i32* %5, align 4
  %29 = icmp slt i32 %28, 100
  br i1 %29, label %30, label %60

30:                                               ; preds = %27
  %31 = load i32, i32* %5, align 4
  %32 = sext i32 %31 to i64
  %33 = getelementptr inbounds [1000 x i8], [1000 x i8]* %2, i64 0, i64 %32
  %34 = load i8, i8* %33, align 1
  %35 = sext i8 %34 to i32
  %36 = icmp eq i32 %35, 32
  br i1 %36, label %37, label %40

37:                                               ; preds = %30
  %38 = load i32, i32* %11, align 4
  %39 = add nsw i32 %38, 1
  store i32 %39, i32* %11, align 4
  br label %60

40:                                               ; preds = %30
  %41 = load i32, i32* %5, align 4
  %42 = sext i32 %41 to i64
  %43 = getelementptr inbounds [1000 x i8], [1000 x i8]* %2, i64 0, i64 %42
  %44 = load i8, i8* %43, align 1
  %45 = load i32, i32* %6, align 4
  %46 = sext i32 %45 to i64
  %47 = getelementptr inbounds [50 x [1000 x i8]], [50 x [1000 x i8]]* %3, i64 0, i64 %46
  %48 = load i32, i32* %8, align 4
  %49 = sext i32 %48 to i64
  %50 = getelementptr inbounds [1000 x i8], [1000 x i8]* %47, i64 0, i64 %49
  store i8 %44, i8* %50, align 1
  %51 = load i32, i32* %7, align 4
  %52 = add nsw i32 %51, 1
  store i32 %52, i32* %7, align 4
  %53 = load i32, i32* %8, align 4
  %54 = add nsw i32 %53, 1
  store i32 %54, i32* %8, align 4
  %55 = load i32, i32* %10, align 4
  %56 = add nsw i32 %55, 1
  store i32 %56, i32* %10, align 4
  br label %57

57:                                               ; preds = %40
  %58 = load i32, i32* %5, align 4
  %59 = add nsw i32 %58, 1
  store i32 %59, i32* %5, align 4
  br label %27

60:                                               ; preds = %37, %27
  %61 = load i32, i32* %7, align 4
  %62 = add nsw i32 %61, 1
  store i32 %62, i32* %7, align 4
  %63 = load i32, i32* %8, align 4
  %64 = add nsw i32 %63, 1
  store i32 %64, i32* %8, align 4
  %65 = load i32, i32* %10, align 4
  %66 = add nsw i32 %65, 1
  store i32 %66, i32* %10, align 4
  %67 = load i32, i32* %6, align 4
  %68 = sext i32 %67 to i64
  %69 = getelementptr inbounds [50 x [1000 x i8]], [50 x [1000 x i8]]* %3, i64 0, i64 %68
  %70 = getelementptr inbounds [1000 x i8], [1000 x i8]* %69, i64 0, i64 0
  %71 = call i64 @strlen(i8* %70) #3
  %72 = trunc i64 %71 to i32
  %73 = load i32, i32* %6, align 4
  %74 = sext i32 %73 to i64
  %75 = getelementptr inbounds [50 x i32], [50 x i32]* %4, i64 0, i64 %74
  store i32 %72, i32* %75, align 4
  %76 = load i32, i32* %10, align 4
  %77 = load i32, i32* %16, align 4
  %78 = icmp sgt i32 %76, %77
  br i1 %78, label %79, label %80

79:                                               ; preds = %60
  br label %84

80:                                               ; preds = %60
  br label %81

81:                                               ; preds = %80
  %82 = load i32, i32* %6, align 4
  %83 = add nsw i32 %82, 1
  store i32 %83, i32* %6, align 4
  br label %22

84:                                               ; preds = %79, %22
  store i32 0, i32* %9, align 4
  br label %85

85:                                               ; preds = %129, %84
  %86 = load i32, i32* %9, align 4
  %87 = load i32, i32* %6, align 4
  %88 = add nsw i32 %87, 1
  %89 = icmp slt i32 %86, %88
  br i1 %89, label %90, label %132

90:                                               ; preds = %85
  %91 = load i32, i32* %9, align 4
  %92 = sext i32 %91 to i64
  %93 = getelementptr inbounds [50 x i32], [50 x i32]* %4, i64 0, i64 %92
  %94 = load i32, i32* %93, align 4
  %95 = icmp eq i32 %94, 0
  br i1 %95, label %96, label %97

96:                                               ; preds = %90
  br label %132

97:                                               ; preds = %90
  %98 = load i32, i32* %12, align 4
  %99 = load i32, i32* %9, align 4
  %100 = sext i32 %99 to i64
  %101 = getelementptr inbounds [50 x i32], [50 x i32]* %4, i64 0, i64 %100
  %102 = load i32, i32* %101, align 4
  %103 = icmp slt i32 %98, %102
  br i1 %103, label %104, label %110

104:                                              ; preds = %97
  %105 = load i32, i32* %9, align 4
  %106 = sext i32 %105 to i64
  %107 = getelementptr inbounds [50 x i32], [50 x i32]* %4, i64 0, i64 %106
  %108 = load i32, i32* %107, align 4
  store i32 %108, i32* %12, align 4
  %109 = load i32, i32* %9, align 4
  store i32 %109, i32* %14, align 4
  br label %110

110:                                              ; preds = %104, %97
  %111 = load i32, i32* %13, align 4
  %112 = load i32, i32* %9, align 4
  %113 = sext i32 %112 to i64
  %114 = getelementptr inbounds [50 x i32], [50 x i32]* %4, i64 0, i64 %113
  %115 = load i32, i32* %114, align 4
  %116 = icmp sgt i32 %111, %115
  br i1 %116, label %117, label %123

117:                                              ; preds = %110
  %118 = load i32, i32* %9, align 4
  %119 = sext i32 %118 to i64
  %120 = getelementptr inbounds [50 x i32], [50 x i32]* %4, i64 0, i64 %119
  %121 = load i32, i32* %120, align 4
  store i32 %121, i32* %13, align 4
  %122 = load i32, i32* %9, align 4
  store i32 %122, i32* %15, align 4
  br label %123

123:                                              ; preds = %117, %110
  %124 = load i32, i32* %9, align 4
  %125 = load i32, i32* %11, align 4
  %126 = icmp sgt i32 %124, %125
  br i1 %126, label %127, label %128

127:                                              ; preds = %123
  br label %132

128:                                              ; preds = %123
  br label %129

129:                                              ; preds = %128
  %130 = load i32, i32* %9, align 4
  %131 = add nsw i32 %130, 1
  store i32 %131, i32* %9, align 4
  br label %85

132:                                              ; preds = %127, %96, %85
  %133 = load i32, i32* %14, align 4
  %134 = sext i32 %133 to i64
  %135 = getelementptr inbounds [50 x [1000 x i8]], [50 x [1000 x i8]]* %3, i64 0, i64 %134
  %136 = getelementptr inbounds [1000 x i8], [1000 x i8]* %135, i64 0, i64 0
  %137 = call i32 (i8*, ...) @printf(i8* getelementptr inbounds ([4 x i8], [4 x i8]* @.str, i64 0, i64 0), i8* %136)
  %138 = load i32, i32* %15, align 4
  %139 = sext i32 %138 to i64
  %140 = getelementptr inbounds [50 x [1000 x i8]], [50 x [1000 x i8]]* %3, i64 0, i64 %139
  %141 = getelementptr inbounds [1000 x i8], [1000 x i8]* %140, i64 0, i64 0
  %142 = call i32 (i8*, ...) @printf(i8* getelementptr inbounds ([4 x i8], [4 x i8]* @.str, i64 0, i64 0), i8* %141)
  ret i32 0
}

declare dso_local i32 @gets(...) #1

; Function Attrs: nounwind readonly
declare dso_local i64 @strlen(i8*) #2

declare dso_local i32 @printf(i8*, ...) #1


!llvm.module.flags = !{!0}
!llvm.ident = !{!1}

!0 = !{i32 1, !"wchar_size", i32 4}
!1 = !{!"clang version 10.0.0-4ubuntu1 "}
